; Function Attrs: nounwind uwtable
define nonnull ptr @Acb_DeriveCnfForWindow(ptr noundef %0, ptr noundef readonly captures(none) %1, i32 noundef %2) local_unnamed_addr #0 {
  %4 = getelementptr i8, ptr %1, i64 4
  %.val18 = load i32, ptr %4, align 4, !tbaa !15
  %5 = icmp sgt i32 %.val18, 0
  br i1 %5, label %.lr.ph, label %.critedge

.lr.ph:                                           ; preds = %3
  %6 = getelementptr i8, ptr %1, i64 8
  %7 = getelementptr i8, ptr %0, i64 456
  %8 = getelementptr i8, ptr %0, i64 216
  %9 = getelementptr i8, ptr %0, i64 136
  %10 = getelementptr i8, ptr %0, i64 152
  %11 = getelementptr inbounds nuw i8, ptr %0, i64 504
  %12 = getelementptr inbounds nuw i8, ptr %0, i64 464
  %13 = getelementptr i8, ptr %0, i64 468
  %14 = getelementptr i8, ptr %0, i64 472
  %15 = sext i32 %2 to i64
  br label %16

16:                                               ; preds = %.lr.ph, %48
  %.val21 = phi i32 [ %.val18, %.lr.ph ], [ %.val, %48 ]
  %indvars.iv = phi i64 [ 0, %.lr.ph ], [ %indvars.iv.next, %48 ]
  %.val15 = load ptr, ptr %6, align 8, !tbaa !18
  %17 = getelementptr inbounds nuw i32, ptr %.val15, i64 %indvars.iv
  %18 = load i32, ptr %17, align 4, !tbaa !19
  %19 = and i32 %18, 1
  %.not = icmp ne i32 %19, 0
  %20 = icmp slt i64 %indvars.iv, %15
  %or.cond = and i1 %20, %.not
  br i1 %or.cond, label %48, label %21

21:                                               ; preds = %16
  %22 = ashr i32 %18, 1
  %.val16 = load ptr, ptr %7, align 8, !tbaa !24
  %23 = sext i32 %22 to i64
  %24 = getelementptr inbounds %struct.Vec_Int_t_, ptr %.val16, i64 %23
  %25 = getelementptr i8, ptr %24, i64 4
  %.val17 = load i32, ptr %25, align 4, !tbaa !7
  %26 = icmp sgt i32 %.val17, 0
  br i1 %26, label %48, label %27

27:                                               ; preds = %21
  %.val15.i = load ptr, ptr %8, align 8, !tbaa !27
  %28 = getelementptr inbounds i64, ptr %.val15.i, i64 %23
  %29 = load i64, ptr %28, align 8, !tbaa !3
  %.val16.i = load ptr, ptr %9, align 8, !tbaa !18
  %.val17.i = load ptr, ptr %10, align 8, !tbaa !18
  %30 = getelementptr inbounds i32, ptr %.val16.i, i64 %23
  %31 = load i32, ptr %30, align 4, !tbaa !19
  %32 = sext i32 %31 to i64
  %33 = getelementptr inbounds i32, ptr %.val17.i, i64 %32
  %34 = load i32, ptr %33, align 4, !tbaa !19
  %35 = tail call i32 @Acb_DeriveCnfFromTruth(i64 noundef %29, i32 noundef %34, ptr noundef nonnull %11, ptr noundef nonnull %12)
  %.val18.i = load i32, ptr %13, align 4, !tbaa !7
  %36 = load i32, ptr %24, align 8, !tbaa !12
  %.not.i.i = icmp slt i32 %36, %.val18.i
  %37 = getelementptr i8, ptr %24, i64 8
  %38 = load ptr, ptr %37, align 8, !tbaa !13
  br i1 %.not.i.i, label %39, label %Acb_DeriveCnfForWindowOne.exit

39:                                               ; preds = %27
  %.not9.i.i = icmp eq ptr %38, null
  %40 = sext i32 %.val18.i to i64
  br i1 %.not9.i.i, label %43, label %41

41:                                               ; preds = %39
  %42 = tail call ptr @realloc(ptr noundef nonnull %38, i64 noundef %40) #23
  %.val19.pre.pre.i = load i32, ptr %13, align 4, !tbaa !7
  br label %45

43:                                               ; preds = %39
  %44 = tail call noalias ptr @malloc(i64 noundef %40) #24
  br label %45

45:                                               ; preds = %43, %41
  %.val19.pre.i = phi i32 [ %.val19.pre.pre.i, %41 ], [ %.val18.i, %43 ]
  %46 = phi ptr [ %42, %41 ], [ %44, %43 ]
  store ptr %46, ptr %37, align 8, !tbaa !13
  store i32 %.val18.i, ptr %24, align 8, !tbaa !12
  br label %Acb_DeriveCnfForWindowOne.exit

Acb_DeriveCnfForWindowOne.exit:                   ; preds = %27, %45
  %.val19.i = phi i32 [ %.val19.pre.i, %45 ], [ %.val18.i, %27 ]
  %.val21.i = phi ptr [ %46, %45 ], [ %38, %27 ]
  %.val22.i = load ptr, ptr %14, align 8, !tbaa !13
  %47 = sext i32 %.val19.i to i64
  tail call void @llvm.memcpy.p0.p0.i64(ptr align 1 %.val21.i, ptr align 1 %.val22.i, i64 %47, i1 false)
  %.val20.i = load i32, ptr %13, align 4, !tbaa !7
  store i32 %.val20.i, ptr %25, align 4, !tbaa !7
  %.val.pre = load i32, ptr %4, align 4, !tbaa !15
  br label %48

48:                                               ; preds = %16, %21, %Acb_DeriveCnfForWindowOne.exit
  %.val = phi i32 [ %.val21, %16 ], [ %.val21, %21 ], [ %.val.pre, %Acb_DeriveCnfForWindowOne.exit ]
  %indvars.iv.next = add nuw nsw i64 %indvars.iv, 1
  %49 = sext i32 %.val to i64
  %50 = icmp slt i64 %indvars.iv.next, %49
  br i1 %50, label %16, label %.critedge, !llvm.loop !30

.critedge:                                        ; preds = %48, %3
  %51 = getelementptr inbounds nuw i8, ptr %0, i64 448
  ret ptr %51
}